target datalayout = "e-m:e-p270:32:32-p271:32:32-p272:64:64-i64:64-i128:128-f80:128-n8:16:32:64-S128"
target triple = "x86_64-pc-linux-gnu"

@FLAC__ENTROPY_CODING_METHOD_PARTITIONED_RICE2_PARAMETER_LEN = external constant i32, align 4
@FLAC__ENTROPY_CODING_METHOD_PARTITIONED_RICE_PARAMETER_LEN = external constant i32, align 4
@FLAC__ENTROPY_CODING_METHOD_PARTITIONED_RICE2_ESCAPE_PARAMETER = external constant i32, align 4
@FLAC__ENTROPY_CODING_METHOD_PARTITIONED_RICE_ESCAPE_PARAMETER = external constant i32, align 4
@FLAC__ENTROPY_CODING_METHOD_PARTITIONED_RICE_RAW_LEN = external constant i32, align 4

; Function Attrs: nounwind sspstrong uwtable
define internal i32 @add_residual_partitioned_rice_(ptr noundef %0, ptr noundef %1, i32 noundef %2, i32 noundef %3, ptr noundef %4, ptr noundef %5, i32 noundef %6, i32 noundef %7) #0 {
  %9 = alloca i32, align 4
  %10 = alloca ptr, align 8
  %11 = alloca ptr, align 8
  %12 = alloca i32, align 4
  %13 = alloca i32, align 4
  %14 = alloca ptr, align 8
  %15 = alloca ptr, align 8
  %16 = alloca i32, align 4
  %17 = alloca i32, align 4
  %18 = alloca i32, align 4
  %19 = alloca i32, align 4
  %20 = alloca i32, align 4
  %21 = alloca i32, align 4
  %22 = alloca i32, align 4
  %23 = alloca i32, align 4
  %24 = alloca i32, align 4
  %25 = alloca i32, align 4
  %26 = alloca i32, align 4
  %27 = alloca i32, align 4
  store ptr %0, ptr %10, align 8, !tbaa !8
  store ptr %1, ptr %11, align 8, !tbaa !62
  store i32 %2, ptr %12, align 4, !tbaa !10
  store i32 %3, ptr %13, align 4, !tbaa !10
  store ptr %4, ptr %14, align 8, !tbaa !62
  store ptr %5, ptr %15, align 8, !tbaa !62
  store i32 %6, ptr %16, align 4, !tbaa !10
  store i32 %7, ptr %17, align 4, !tbaa !10
  call void @llvm.lifetime.start.p0(i64 4, ptr %18) #4
  %28 = load i32, ptr %17, align 4, !tbaa !10
  %29 = icmp ne i32 %28, 0
  br i1 %29, label %30, label %32

30:                                               ; preds = %8
  %31 = load i32, ptr @FLAC__ENTROPY_CODING_METHOD_PARTITIONED_RICE2_PARAMETER_LEN, align 4, !tbaa !10
  br label %34

32:                                               ; preds = %8
  %33 = load i32, ptr @FLAC__ENTROPY_CODING_METHOD_PARTITIONED_RICE_PARAMETER_LEN, align 4, !tbaa !10
  br label %34

34:                                               ; preds = %32, %30
  %35 = phi i32 [ %31, %30 ], [ %33, %32 ]
  store i32 %35, ptr %18, align 4, !tbaa !10
  call void @llvm.lifetime.start.p0(i64 4, ptr %19) #4
  %36 = load i32, ptr %17, align 4, !tbaa !10
  %37 = icmp ne i32 %36, 0
  br i1 %37, label %38, label %40

38:                                               ; preds = %34
  %39 = load i32, ptr @FLAC__ENTROPY_CODING_METHOD_PARTITIONED_RICE2_ESCAPE_PARAMETER, align 4, !tbaa !10
  br label %42

40:                                               ; preds = %34
  %41 = load i32, ptr @FLAC__ENTROPY_CODING_METHOD_PARTITIONED_RICE_ESCAPE_PARAMETER, align 4, !tbaa !10
  br label %42

42:                                               ; preds = %40, %38
  %43 = phi i32 [ %39, %38 ], [ %41, %40 ]
  store i32 %43, ptr %19, align 4, !tbaa !10
  %44 = load i32, ptr %16, align 4, !tbaa !10
  %45 = icmp eq i32 %44, 0
  br i1 %45, label %46, label %112

46:                                               ; preds = %42
  call void @llvm.lifetime.start.p0(i64 4, ptr %20) #4
  %47 = load ptr, ptr %15, align 8, !tbaa !62
  %48 = getelementptr inbounds i32, ptr %47, i64 0
  %49 = load i32, ptr %48, align 4, !tbaa !10
  %50 = icmp eq i32 %49, 0
  br i1 %50, label %51, label %71

51:                                               ; preds = %46
  %52 = load ptr, ptr %10, align 8, !tbaa !8
  %53 = load ptr, ptr %14, align 8, !tbaa !62
  %54 = getelementptr inbounds i32, ptr %53, i64 0
  %55 = load i32, ptr %54, align 4, !tbaa !10
  %56 = load i32, ptr %18, align 4, !tbaa !10
  %57 = call i32 @FLAC__bitwriter_write_raw_uint32(ptr noundef %52, i32 noundef %55, i32 noundef %56)
  %58 = icmp ne i32 %57, 0
  br i1 %58, label %60, label %59

59:                                               ; preds = %51
  store i32 0, ptr %9, align 4
  store i32 1, ptr %21, align 4
  br label %111

60:                                               ; preds = %51
  %61 = load ptr, ptr %10, align 8, !tbaa !8
  %62 = load ptr, ptr %11, align 8, !tbaa !62
  %63 = load i32, ptr %12, align 4, !tbaa !10
  %64 = load ptr, ptr %14, align 8, !tbaa !62
  %65 = getelementptr inbounds i32, ptr %64, i64 0
  %66 = load i32, ptr %65, align 4, !tbaa !10
  %67 = call i32 @FLAC__bitwriter_write_rice_signed_block(ptr noundef %61, ptr noundef %62, i32 noundef %63, i32 noundef %66)
  %68 = icmp ne i32 %67, 0
  br i1 %68, label %70, label %69

69:                                               ; preds = %60
  store i32 0, ptr %9, align 4
  store i32 1, ptr %21, align 4
  br label %111

70:                                               ; preds = %60
  br label %110

71:                                               ; preds = %46
  %72 = load ptr, ptr %10, align 8, !tbaa !8
  %73 = load i32, ptr %19, align 4, !tbaa !10
  %74 = load i32, ptr %18, align 4, !tbaa !10
  %75 = call i32 @FLAC__bitwriter_write_raw_uint32(ptr noundef %72, i32 noundef %73, i32 noundef %74)
  %76 = icmp ne i32 %75, 0
  br i1 %76, label %78, label %77

77:                                               ; preds = %71
  store i32 0, ptr %9, align 4
  store i32 1, ptr %21, align 4
  br label %111

78:                                               ; preds = %71
  %79 = load ptr, ptr %10, align 8, !tbaa !8
  %80 = load ptr, ptr %15, align 8, !tbaa !62
  %81 = getelementptr inbounds i32, ptr %80, i64 0
  %82 = load i32, ptr %81, align 4, !tbaa !10
  %83 = load i32, ptr @FLAC__ENTROPY_CODING_METHOD_PARTITIONED_RICE_RAW_LEN, align 4, !tbaa !10
  %84 = call i32 @FLAC__bitwriter_write_raw_uint32(ptr noundef %79, i32 noundef %82, i32 noundef %83)
  %85 = icmp ne i32 %84, 0
  br i1 %85, label %87, label %86

86:                                               ; preds = %78
  store i32 0, ptr %9, align 4
  store i32 1, ptr %21, align 4
  br label %111

87:                                               ; preds = %78
  store i32 0, ptr %20, align 4, !tbaa !10
  br label %88

88:                                               ; preds = %106, %87
  %89 = load i32, ptr %20, align 4, !tbaa !10
  %90 = load i32, ptr %12, align 4, !tbaa !10
  %91 = icmp ult i32 %89, %90
  br i1 %91, label %92, label %109

92:                                               ; preds = %88
  %93 = load ptr, ptr %10, align 8, !tbaa !8
  %94 = load ptr, ptr %11, align 8, !tbaa !62
  %95 = load i32, ptr %20, align 4, !tbaa !10
  %96 = zext i32 %95 to i64
  %97 = getelementptr inbounds nuw i32, ptr %94, i64 %96
  %98 = load i32, ptr %97, align 4, !tbaa !10
  %99 = load ptr, ptr %15, align 8, !tbaa !62
  %100 = getelementptr inbounds i32, ptr %99, i64 0
  %101 = load i32, ptr %100, align 4, !tbaa !10
  %102 = call i32 @FLAC__bitwriter_write_raw_int32(ptr noundef %93, i32 noundef %98, i32 noundef %101)
  %103 = icmp ne i32 %102, 0
  br i1 %103, label %105, label %104

104:                                              ; preds = %92
  store i32 0, ptr %9, align 4
  store i32 1, ptr %21, align 4
  br label %111

105:                                              ; preds = %92
  br label %106

106:                                              ; preds = %105
  %107 = load i32, ptr %20, align 4, !tbaa !10
  %108 = add i32 %107, 1
  store i32 %108, ptr %20, align 4, !tbaa !10
  br label %88, !llvm.loop !63

109:                                              ; preds = %88
  br label %110

110:                                              ; preds = %109, %70
  store i32 1, ptr %9, align 4
  store i32 1, ptr %21, align 4
  br label %111

111:                                              ; preds = %110, %104, %86, %77, %69, %59
  call void @llvm.lifetime.end.p0(i64 4, ptr %20) #4
  br label %221

112:                                              ; preds = %42
  call void @llvm.lifetime.start.p0(i64 4, ptr %22) #4
  call void @llvm.lifetime.start.p0(i64 4, ptr %23) #4
  call void @llvm.lifetime.start.p0(i64 4, ptr %24) #4
  store i32 0, ptr %24, align 4, !tbaa !10
  call void @llvm.lifetime.start.p0(i64 4, ptr %25) #4
  store i32 0, ptr %25, align 4, !tbaa !10
  call void @llvm.lifetime.start.p0(i64 4, ptr %26) #4
  call void @llvm.lifetime.start.p0(i64 4, ptr %27) #4
  %113 = load i32, ptr %12, align 4, !tbaa !10
  %114 = load i32, ptr %13, align 4, !tbaa !10
  %115 = add i32 %113, %114
  %116 = load i32, ptr %16, align 4, !tbaa !10
  %117 = lshr i32 %115, %116
  store i32 %117, ptr %27, align 4, !tbaa !10
  store i32 0, ptr %22, align 4, !tbaa !10
  br label %118

118:                                              ; preds = %216, %112
  %119 = load i32, ptr %22, align 4, !tbaa !10
  %120 = load i32, ptr %16, align 4, !tbaa !10
  %121 = shl i32 1, %120
  %122 = icmp ult i32 %119, %121
  br i1 %122, label %123, label %219

123:                                              ; preds = %118
  %124 = load i32, ptr %27, align 4, !tbaa !10
  store i32 %124, ptr %26, align 4, !tbaa !10
  %125 = load i32, ptr %22, align 4, !tbaa !10
  %126 = icmp eq i32 %125, 0
  br i1 %126, label %127, label %131

127:                                              ; preds = %123
  %128 = load i32, ptr %13, align 4, !tbaa !10
  %129 = load i32, ptr %26, align 4, !tbaa !10
  %130 = sub i32 %129, %128
  store i32 %130, ptr %26, align 4, !tbaa !10
  br label %131

131:                                              ; preds = %127, %123
  %132 = load i32, ptr %26, align 4, !tbaa !10
  %133 = load i32, ptr %24, align 4, !tbaa !10
  %134 = add i32 %133, %132
  store i32 %134, ptr %24, align 4, !tbaa !10
  %135 = load ptr, ptr %15, align 8, !tbaa !62
  %136 = load i32, ptr %22, align 4, !tbaa !10
  %137 = zext i32 %136 to i64
  %138 = getelementptr inbounds nuw i32, ptr %135, i64 %137
  %139 = load i32, ptr %138, align 4, !tbaa !10
  %140 = icmp eq i32 %139, 0
  br i1 %140, label %141, label %170

141:                                              ; preds = %131
  %142 = load ptr, ptr %10, align 8, !tbaa !8
  %143 = load ptr, ptr %14, align 8, !tbaa !62
  %144 = load i32, ptr %22, align 4, !tbaa !10
  %145 = zext i32 %144 to i64
  %146 = getelementptr inbounds nuw i32, ptr %143, i64 %145
  %147 = load i32, ptr %146, align 4, !tbaa !10
  %148 = load i32, ptr %18, align 4, !tbaa !10
  %149 = call i32 @FLAC__bitwriter_write_raw_uint32(ptr noundef %142, i32 noundef %147, i32 noundef %148)
  %150 = icmp ne i32 %149, 0
  br i1 %150, label %152, label %151

151:                                              ; preds = %141
  store i32 0, ptr %9, align 4
  store i32 1, ptr %21, align 4
  br label %220

152:                                              ; preds = %141
  %153 = load ptr, ptr %10, align 8, !tbaa !8
  %154 = load ptr, ptr %11, align 8, !tbaa !62
  %155 = load i32, ptr %25, align 4, !tbaa !10
  %156 = zext i32 %155 to i64
  %157 = getelementptr inbounds nuw i32, ptr %154, i64 %156
  %158 = load i32, ptr %24, align 4, !tbaa !10
  %159 = load i32, ptr %25, align 4, !tbaa !10
  %160 = sub i32 %158, %159
  %161 = load ptr, ptr %14, align 8, !tbaa !62
  %162 = load i32, ptr %22, align 4, !tbaa !10
  %163 = zext i32 %162 to i64
  %164 = getelementptr inbounds nuw i32, ptr %161, i64 %163
  %165 = load i32, ptr %164, align 4, !tbaa !10
  %166 = call i32 @FLAC__bitwriter_write_rice_signed_block(ptr noundef %153, ptr noundef %157, i32 noundef %160, i32 noundef %165)
  %167 = icmp ne i32 %166, 0
  br i1 %167, label %169, label %168

168:                                              ; preds = %152
  store i32 0, ptr %9, align 4
  store i32 1, ptr %21, align 4
  br label %220

169:                                              ; preds = %152
  br label %214

170:                                              ; preds = %131
  %171 = load ptr, ptr %10, align 8, !tbaa !8
  %172 = load i32, ptr %19, align 4, !tbaa !10
  %173 = load i32, ptr %18, align 4, !tbaa !10
  %174 = call i32 @FLAC__bitwriter_write_raw_uint32(ptr noundef %171, i32 noundef %172, i32 noundef %173)
  %175 = icmp ne i32 %174, 0
  br i1 %175, label %177, label %176

176:                                              ; preds = %170
  store i32 0, ptr %9, align 4
  store i32 1, ptr %21, align 4
  br label %220

177:                                              ; preds = %170
  %178 = load ptr, ptr %10, align 8, !tbaa !8
  %179 = load ptr, ptr %15, align 8, !tbaa !62
  %180 = load i32, ptr %22, align 4, !tbaa !10
  %181 = zext i32 %180 to i64
  %182 = getelementptr inbounds nuw i32, ptr %179, i64 %181
  %183 = load i32, ptr %182, align 4, !tbaa !10
  %184 = load i32, ptr @FLAC__ENTROPY_CODING_METHOD_PARTITIONED_RICE_RAW_LEN, align 4, !tbaa !10
  %185 = call i32 @FLAC__bitwriter_write_raw_uint32(ptr noundef %178, i32 noundef %183, i32 noundef %184)
  %186 = icmp ne i32 %185, 0
  br i1 %186, label %188, label %187

187:                                              ; preds = %177
  store i32 0, ptr %9, align 4
  store i32 1, ptr %21, align 4
  br label %220

188:                                              ; preds = %177
  %189 = load i32, ptr %25, align 4, !tbaa !10
  store i32 %189, ptr %23, align 4, !tbaa !10
  br label %190

190:                                              ; preds = %210, %188
  %191 = load i32, ptr %23, align 4, !tbaa !10
  %192 = load i32, ptr %24, align 4, !tbaa !10
  %193 = icmp ult i32 %191, %192
  br i1 %193, label %194, label %213

194:                                              ; preds = %190
  %195 = load ptr, ptr %10, align 8, !tbaa !8
  %196 = load ptr, ptr %11, align 8, !tbaa !62
  %197 = load i32, ptr %23, align 4, !tbaa !10
  %198 = zext i32 %197 to i64
  %199 = getelementptr inbounds nuw i32, ptr %196, i64 %198
  %200 = load i32, ptr %199, align 4, !tbaa !10
  %201 = load ptr, ptr %15, align 8, !tbaa !62
  %202 = load i32, ptr %22, align 4, !tbaa !10
  %203 = zext i32 %202 to i64
  %204 = getelementptr inbounds nuw i32, ptr %201, i64 %203
  %205 = load i32, ptr %204, align 4, !tbaa !10
  %206 = call i32 @FLAC__bitwriter_write_raw_int32(ptr noundef %195, i32 noundef %200, i32 noundef %205)
  %207 = icmp ne i32 %206, 0
  br i1 %207, label %209, label %208

208:                                              ; preds = %194
  store i32 0, ptr %9, align 4
  store i32 1, ptr %21, align 4
  br label %220

209:                                              ; preds = %194
  br label %210

210:                                              ; preds = %209
  %211 = load i32, ptr %23, align 4, !tbaa !10
  %212 = add i32 %211, 1
  store i32 %212, ptr %23, align 4, !tbaa !10
  br label %190, !llvm.loop !64

213:                                              ; preds = %190
  br label %214

214:                                              ; preds = %213, %169
  %215 = load i32, ptr %24, align 4, !tbaa !10
  store i32 %215, ptr %25, align 4, !tbaa !10
  br label %216

216:                                              ; preds = %214
  %217 = load i32, ptr %22, align 4, !tbaa !10
  %218 = add i32 %217, 1
  store i32 %218, ptr %22, align 4, !tbaa !10
  br label %118, !llvm.loop !65

219:                                              ; preds = %118
  store i32 1, ptr %9, align 4
  store i32 1, ptr %21, align 4
  br label %220

220:                                              ; preds = %219, %208, %187, %176, %168, %151
  call void @llvm.lifetime.end.p0(i64 4, ptr %27) #4
  call void @llvm.lifetime.end.p0(i64 4, ptr %26) #4
  call void @llvm.lifetime.end.p0(i64 4, ptr %25) #4
  call void @llvm.lifetime.end.p0(i64 4, ptr %24) #4
  call void @llvm.lifetime.end.p0(i64 4, ptr %23) #4
  call void @llvm.lifetime.end.p0(i64 4, ptr %22) #4
  br label %221

221:                                              ; preds = %220, %111
  call void @llvm.lifetime.end.p0(i64 4, ptr %19) #4
  call void @llvm.lifetime.end.p0(i64 4, ptr %18) #4
  %222 = load i32, ptr %9, align 4
  ret i32 %222
}