; Function Attrs: nounwind sspstrong uwtable
define internal fastcc range(i32 0, 2) i32 @add_residual_partitioned_rice_(ptr noundef %0, ptr noundef %1, i32 noundef %2, i32 noundef %3, ptr noundef readonly captures(none) %4, ptr noundef readonly captures(none) %5, i32 noundef %6, i32 noundef range(i32 0, 2) %7) unnamed_addr #0 {
  %.not = icmp eq i32 %7, 0
  %9 = load i32, ptr @FLAC__ENTROPY_CODING_METHOD_PARTITIONED_RICE2_PARAMETER_LEN, align 4
  %10 = load i32, ptr @FLAC__ENTROPY_CODING_METHOD_PARTITIONED_RICE_PARAMETER_LEN, align 4
  %11 = select i1 %.not, i32 %10, i32 %9
  %12 = load i32, ptr @FLAC__ENTROPY_CODING_METHOD_PARTITIONED_RICE2_ESCAPE_PARAMETER, align 4
  %13 = load i32, ptr @FLAC__ENTROPY_CODING_METHOD_PARTITIONED_RICE_ESCAPE_PARAMETER, align 4
  %14 = select i1 %.not, i32 %13, i32 %12
  %15 = icmp eq i32 %6, 0
  br i1 %15, label %16, label %36

16:                                               ; preds = %8
  %17 = load i32, ptr %5, align 4, !tbaa !11
  %18 = icmp eq i32 %17, 0
  br i1 %18, label %19, label %25

19:                                               ; preds = %16
  %20 = load i32, ptr %4, align 4, !tbaa !11
  %21 = tail call i32 @FLAC__bitwriter_write_raw_uint32(ptr noundef %0, i32 noundef %20, i32 noundef %11) #6
  %.not79 = icmp eq i32 %21, 0
  br i1 %.not79, label %.loopexit81, label %22

22:                                               ; preds = %19
  %23 = load i32, ptr %4, align 4, !tbaa !11
  %24 = tail call i32 @FLAC__bitwriter_write_rice_signed_block(ptr noundef %0, ptr noundef %1, i32 noundef %2, i32 noundef %23) #6
  %.not80 = icmp eq i32 %24, 0
  br i1 %.not80, label %.loopexit81, label %.loopexit

25:                                               ; preds = %16
  %26 = tail call i32 @FLAC__bitwriter_write_raw_uint32(ptr noundef %0, i32 noundef %14, i32 noundef %11) #6
  %.not76 = icmp eq i32 %26, 0
  br i1 %.not76, label %.loopexit81, label %27

27:                                               ; preds = %25
  %28 = load i32, ptr %5, align 4, !tbaa !11
  %29 = load i32, ptr @FLAC__ENTROPY_CODING_METHOD_PARTITIONED_RICE_RAW_LEN, align 4, !tbaa !11
  %30 = tail call i32 @FLAC__bitwriter_write_raw_uint32(ptr noundef %0, i32 noundef %28, i32 noundef %29) #6
  %.not77 = icmp eq i32 %30, 0
  br i1 %.not77, label %.loopexit81, label %.preheader

.preheader:                                       ; preds = %27
  %.not91 = icmp eq i32 %2, 0
  br i1 %.not91, label %.loopexit, label %.lr.ph90.preheader

.lr.ph90.preheader:                               ; preds = %.preheader
  %wide.trip.count = zext i32 %2 to i64
  br label %.lr.ph90

31:                                               ; preds = %.lr.ph90
  %indvars.iv.next96 = add nuw nsw i64 %indvars.iv95, 1
  %exitcond98.not = icmp eq i64 %indvars.iv.next96, %wide.trip.count
  br i1 %exitcond98.not, label %.loopexit, label %.lr.ph90, !llvm.loop !57

.lr.ph90:                                         ; preds = %.lr.ph90.preheader, %31
  %indvars.iv95 = phi i64 [ 0, %.lr.ph90.preheader ], [ %indvars.iv.next96, %31 ]
  %32 = getelementptr inbounds nuw i32, ptr %1, i64 %indvars.iv95
  %33 = load i32, ptr %32, align 4, !tbaa !11
  %34 = load i32, ptr %5, align 4, !tbaa !11
  %35 = tail call i32 @FLAC__bitwriter_write_raw_int32(ptr noundef %0, i32 noundef %33, i32 noundef %34) #6
  %.not78 = icmp eq i32 %35, 0
  br i1 %.not78, label %.loopexit81, label %31

.loopexit:                                        ; preds = %31, %.preheader, %22
  br label %.loopexit81

36:                                               ; preds = %8
  %37 = add i32 %3, %2
  %38 = lshr i32 %37, %6
  %39 = load i32, ptr @FLAC__ENTROPY_CODING_METHOD_PARTITIONED_RICE_RAW_LEN, align 4
  br label %40

40:                                               ; preds = %36, %.loopexit83
  %.06588 = phi i32 [ 0, %36 ], [ %43, %.loopexit83 ]
  %.06887 = phi i32 [ 0, %36 ], [ %69, %.loopexit83 ]
  %41 = icmp eq i32 %.06887, 0
  %42 = select i1 %41, i32 %3, i32 0
  %spec.select = sub i32 %38, %42
  %43 = add i32 %spec.select, %.06588
  %44 = zext i32 %.06887 to i64
  %45 = getelementptr inbounds nuw i32, ptr %5, i64 %44
  %46 = load i32, ptr %45, align 4, !tbaa !11
  %47 = icmp eq i32 %46, 0
  br i1 %47, label %48, label %57

48:                                               ; preds = %40
  %49 = getelementptr inbounds nuw i32, ptr %4, i64 %44
  %50 = load i32, ptr %49, align 4, !tbaa !11
  %51 = tail call i32 @FLAC__bitwriter_write_raw_uint32(ptr noundef %0, i32 noundef %50, i32 noundef %11) #6
  %.not74 = icmp eq i32 %51, 0
  br i1 %.not74, label %.loopexit81, label %52

52:                                               ; preds = %48
  %53 = zext i32 %.06588 to i64
  %54 = getelementptr inbounds nuw i32, ptr %1, i64 %53
  %55 = load i32, ptr %49, align 4, !tbaa !11
  %56 = tail call i32 @FLAC__bitwriter_write_rice_signed_block(ptr noundef %0, ptr noundef %54, i32 noundef %spec.select, i32 noundef %55) #6
  %.not75 = icmp eq i32 %56, 0
  br i1 %.not75, label %.loopexit81, label %.loopexit83

57:                                               ; preds = %40
  %58 = tail call i32 @FLAC__bitwriter_write_raw_uint32(ptr noundef %0, i32 noundef %14, i32 noundef %11) #6
  %.not71 = icmp eq i32 %58, 0
  br i1 %.not71, label %.loopexit81, label %59

59:                                               ; preds = %57
  %60 = load i32, ptr %45, align 4, !tbaa !11
  %61 = tail call i32 @FLAC__bitwriter_write_raw_uint32(ptr noundef %0, i32 noundef %60, i32 noundef %39) #6
  %.not72 = icmp eq i32 %61, 0
  br i1 %.not72, label %.loopexit81, label %.preheader82

.preheader82:                                     ; preds = %59
  %62 = icmp ult i32 %.06588, %43
  br i1 %62, label %.lr.ph.preheader, label %.loopexit83

.lr.ph.preheader:                                 ; preds = %.preheader82
  %63 = zext i32 %.06588 to i64
  br label %.lr.ph

64:                                               ; preds = %.lr.ph
  %indvars.iv.next = add nuw nsw i64 %indvars.iv, 1
  %lftr.wideiv = trunc i64 %indvars.iv.next to i32
  %exitcond.not = icmp eq i32 %43, %lftr.wideiv
  br i1 %exitcond.not, label %.loopexit83, label %.lr.ph, !llvm.loop !58

.lr.ph:                                           ; preds = %.lr.ph.preheader, %64
  %indvars.iv = phi i64 [ %63, %.lr.ph.preheader ], [ %indvars.iv.next, %64 ]
  %65 = getelementptr inbounds nuw i32, ptr %1, i64 %indvars.iv
  %66 = load i32, ptr %65, align 4, !tbaa !11
  %67 = load i32, ptr %45, align 4, !tbaa !11
  %68 = tail call i32 @FLAC__bitwriter_write_raw_int32(ptr noundef %0, i32 noundef %66, i32 noundef %67) #6
  %.not73 = icmp eq i32 %68, 0
  br i1 %.not73, label %.loopexit81, label %64

.loopexit83:                                      ; preds = %64, %.preheader82, %52
  %69 = add i32 %.06887, 1
  %.068.highbits = lshr i32 %69, %6
  %70 = icmp eq i32 %.068.highbits, 0
  br i1 %70, label %40, label %.loopexit81, !llvm.loop !59

.loopexit81:                                      ; preds = %48, %52, %57, %59, %.loopexit83, %.lr.ph, %.lr.ph90, %.loopexit, %19, %22, %25, %27
  %.1 = phi i32 [ 1, %.loopexit ], [ 0, %19 ], [ 0, %22 ], [ 0, %25 ], [ 0, %27 ], [ 0, %.lr.ph90 ], [ 0, %.lr.ph ], [ 1, %.loopexit83 ], [ 0, %59 ], [ 0, %57 ], [ 0, %52 ], [ 0, %48 ]
  ret i32 %.1
}